; Function Attrs: mustprogress nofree nounwind uwtable
define internal fastcc noundef nonnull ptr @_ZN4llvm16itanium_demangle22AbstractManglingParserINS0_14ManglingParserIN12_GLOBAL__N_116DefaultAllocatorEEES4_E4makeINS0_11EnumLiteralEJRPNS0_4NodeERSt17basic_string_viewIcSt11char_traitsIcEEEEESA_DpOT0_(ptr nocapture noundef nonnull align 16 dereferenceable(4928) %0, ptr nocapture noundef nonnull readonly align 8 dereferenceable(8) %1, ptr nocapture noundef nonnull readonly align 8 dereferenceable(16) %2) unnamed_addr #12 align 2 {
  %4 = getelementptr inbounds i8, ptr %0, i64 4912
  %5 = load ptr, ptr %4, align 16
  %6 = getelementptr inbounds nuw i8, ptr %5, i64 8
  %7 = load i64, ptr %6, align 8
  %8 = add i64 %7, -4032
  %9 = icmp ult i64 %8, -4080
  br i1 %9, label %10, label %_ZN12_GLOBAL__N_116DefaultAllocator8makeNodeIN4llvm16itanium_demangle11EnumLiteralEJRPNS3_4NodeERSt17basic_string_viewIcSt11char_traitsIcEEEEEPT_DpOT0_.exit

10:                                               ; preds = %3
  %11 = tail call noalias dereferenceable_or_null(4096) ptr @malloc(i64 noundef 4096) #23
  %12 = icmp eq ptr %11, null
  br i1 %12, label %13, label %_ZN12_GLOBAL__N_120BumpPointerAllocator4growEv.exit.i.i

13:                                               ; preds = %10
  tail call void @_ZSt9terminatev() #22
  unreachable

_ZN12_GLOBAL__N_120BumpPointerAllocator4growEv.exit.i.i: ; preds = %10
  store ptr %5, ptr %11, align 8
  %14 = getelementptr inbounds nuw i8, ptr %11, i64 8
  store i64 0, ptr %14, align 8
  store ptr %11, ptr %4, align 16
  br label %_ZN12_GLOBAL__N_116DefaultAllocator8makeNodeIN4llvm16itanium_demangle11EnumLiteralEJRPNS3_4NodeERSt17basic_string_viewIcSt11char_traitsIcEEEEEPT_DpOT0_.exit

_ZN12_GLOBAL__N_116DefaultAllocator8makeNodeIN4llvm16itanium_demangle11EnumLiteralEJRPNS3_4NodeERSt17basic_string_viewIcSt11char_traitsIcEEEEEPT_DpOT0_.exit: ; preds = %3, %_ZN12_GLOBAL__N_120BumpPointerAllocator4growEv.exit.i.i
  %15 = phi i64 [ 0, %_ZN12_GLOBAL__N_120BumpPointerAllocator4growEv.exit.i.i ], [ %7, %3 ]
  %16 = phi ptr [ %11, %_ZN12_GLOBAL__N_120BumpPointerAllocator4growEv.exit.i.i ], [ %5, %3 ]
  %17 = getelementptr inbounds nuw i8, ptr %16, i64 8
  %18 = add nsw i64 %15, 48
  store i64 %18, ptr %17, align 8
  %19 = load ptr, ptr %4, align 16
  %20 = getelementptr inbounds i8, ptr %19, i64 16
  %21 = getelementptr inbounds nuw i8, ptr %19, i64 8
  %22 = load i64, ptr %21, align 8
  %23 = getelementptr inbounds i8, ptr %20, i64 %22
  %24 = getelementptr inbounds i8, ptr %23, i64 -48
  %25 = load ptr, ptr %1, align 8
  %.sroa.0.0.copyload.i = load i64, ptr %2, align 8
  %.sroa.2.0..sroa_idx.i = getelementptr inbounds i8, ptr %2, i64 8
  %.sroa.2.0.copyload.i = load ptr, ptr %.sroa.2.0..sroa_idx.i, align 8
  %26 = getelementptr inbounds i8, ptr %23, i64 -40
  store i8 76, ptr %26, align 8
  %27 = getelementptr inbounds i8, ptr %23, i64 -39
  %28 = load i16, ptr %27, align 1
  %29 = and i16 %28, -4096
  %30 = or disjoint i16 %29, 1344
  store i16 %30, ptr %27, align 1
  store ptr getelementptr inbounds inrange(-16, 72) (i8, ptr @_ZTVN4llvm16itanium_demangle11EnumLiteralE, i64 16), ptr %24, align 8
  %31 = getelementptr inbounds i8, ptr %23, i64 -32
  store ptr %25, ptr %31, align 8
  %32 = getelementptr inbounds i8, ptr %23, i64 -24
  store i64 %.sroa.0.0.copyload.i, ptr %32, align 8
  %.sroa.2.0..sroa_idx.i.i = getelementptr inbounds i8, ptr %23, i64 -16
  store ptr %.sroa.2.0.copyload.i, ptr %.sroa.2.0..sroa_idx.i.i, align 8
  ret ptr %24
}